#include <math.h>
#include <stdio.h>
#include <stdlib.h>
#include <string.h>

int main()
{
  int row,col;
  scanf("%d %d",&row,&col);
  int array[row][col];
  int i,j,k,l;
  for(i=0;i<row;i++)
  for(j=0;j<col;j++)
  scanf("%d",&array[i][j]);
  for(k=0;k<col+row-1;k++)
  for(l=0;k-l>-1;l++)
  if(k-l<col&&l<row)
  printf("%d\n",array[l][k-l]);
  return 0;
}
  