; ModuleID = '4/2187.c'
source_filename = "4/2187.c"
target datalayout = "e-m:e-p270:32:32-p271:32:32-p272:64:64-i64:64-f80:128-n8:16:32:64-S128"
target triple = "x86_64-pc-linux-gnu"

@.str = private unnamed_addr constant [6 x i8] c"%d %d\00", align 1
@.str.1 = private unnamed_addr constant [3 x i8] c"%d\00", align 1
@.str.2 = private unnamed_addr constant [4 x i8] c"%d\0A\00", align 1

; Function Attrs: noinline nounwind uwtable
define dso_local i32 @main() #0 {
  %1 = alloca i32, align 4
  %2 = alloca i32, align 4
  %3 = alloca i32, align 4
  %4 = alloca i8*, align 8
  %5 = alloca i64, align 8
  %6 = alloca i64, align 8
  %7 = alloca i32, align 4
  %8 = alloca i32, align 4
  %9 = alloca i32, align 4
  %10 = alloca i32, align 4
  store i32 0, i32* %1, align 4
  %11 = call i32 (i8*, ...) @__isoc99_scanf(i8* getelementptr inbounds ([6 x i8], [6 x i8]* @.str, i64 0, i64 0), i32* %2, i32* %3)
  %12 = load i32, i32* %2, align 4
  %13 = zext i32 %12 to i64
  %14 = load i32, i32* %3, align 4
  %15 = zext i32 %14 to i64
  %16 = call i8* @llvm.stacksave()
  store i8* %16, i8** %4, align 8
  %17 = mul nuw i64 %13, %15
  %18 = alloca i32, i64 %17, align 16
  store i64 %13, i64* %5, align 8
  store i64 %15, i64* %6, align 8
  store i32 0, i32* %7, align 4
  br label %19

19:                                               ; preds = %41, %0
  %20 = load i32, i32* %7, align 4
  %21 = load i32, i32* %2, align 4
  %22 = icmp slt i32 %20, %21
  br i1 %22, label %23, label %44

23:                                               ; preds = %19
  store i32 0, i32* %8, align 4
  br label %24

24:                                               ; preds = %37, %23
  %25 = load i32, i32* %8, align 4
  %26 = load i32, i32* %3, align 4
  %27 = icmp slt i32 %25, %26
  br i1 %27, label %28, label %40

28:                                               ; preds = %24
  %29 = load i32, i32* %7, align 4
  %30 = sext i32 %29 to i64
  %31 = mul nsw i64 %30, %15
  %32 = getelementptr inbounds i32, i32* %18, i64 %31
  %33 = load i32, i32* %8, align 4
  %34 = sext i32 %33 to i64
  %35 = getelementptr inbounds i32, i32* %32, i64 %34
  %36 = call i32 (i8*, ...) @__isoc99_scanf(i8* getelementptr inbounds ([3 x i8], [3 x i8]* @.str.1, i64 0, i64 0), i32* %35)
  br label %37

37:                                               ; preds = %28
  %38 = load i32, i32* %8, align 4
  %39 = add nsw i32 %38, 1
  store i32 %39, i32* %8, align 4
  br label %24

40:                                               ; preds = %24
  br label %41

41:                                               ; preds = %40
  %42 = load i32, i32* %7, align 4
  %43 = add nsw i32 %42, 1
  store i32 %43, i32* %7, align 4
  br label %19

44:                                               ; preds = %19
  store i32 0, i32* %9, align 4
  br label %45

45:                                               ; preds = %85, %44
  %46 = load i32, i32* %9, align 4
  %47 = load i32, i32* %3, align 4
  %48 = load i32, i32* %2, align 4
  %49 = add nsw i32 %47, %48
  %50 = sub nsw i32 %49, 1
  %51 = icmp slt i32 %46, %50
  br i1 %51, label %52, label %88

52:                                               ; preds = %45
  store i32 0, i32* %10, align 4
  br label %53

53:                                               ; preds = %81, %52
  %54 = load i32, i32* %9, align 4
  %55 = load i32, i32* %10, align 4
  %56 = sub nsw i32 %54, %55
  %57 = icmp sgt i32 %56, -1
  br i1 %57, label %58, label %84

58:                                               ; preds = %53
  %59 = load i32, i32* %9, align 4
  %60 = load i32, i32* %10, align 4
  %61 = sub nsw i32 %59, %60
  %62 = load i32, i32* %3, align 4
  %63 = icmp slt i32 %61, %62
  br i1 %63, label %64, label %80

64:                                               ; preds = %58
  %65 = load i32, i32* %10, align 4
  %66 = load i32, i32* %2, align 4
  %67 = icmp slt i32 %65, %66
  br i1 %67, label %68, label %80

68:                                               ; preds = %64
  %69 = load i32, i32* %10, align 4
  %70 = sext i32 %69 to i64
  %71 = mul nsw i64 %70, %15
  %72 = getelementptr inbounds i32, i32* %18, i64 %71
  %73 = load i32, i32* %9, align 4
  %74 = load i32, i32* %10, align 4
  %75 = sub nsw i32 %73, %74
  %76 = sext i32 %75 to i64
  %77 = getelementptr inbounds i32, i32* %72, i64 %76
  %78 = load i32, i32* %77, align 4
  %79 = call i32 (i8*, ...) @printf(i8* getelementptr inbounds ([4 x i8], [4 x i8]* @.str.2, i64 0, i64 0), i32 %78)
  br label %80

80:                                               ; preds = %68, %64, %58
  br label %81

81:                                               ; preds = %80
  %82 = load i32, i32* %10, align 4
  %83 = add nsw i32 %82, 1
  store i32 %83, i32* %10, align 4
  br label %53

84:                                               ; preds = %53
  br label %85

85:                                               ; preds = %84
  %86 = load i32, i32* %9, align 4
  %87 = add nsw i32 %86, 1
  store i32 %87, i32* %9, align 4
  br label %45

88:                                               ; preds = %45
  store i32 0, i32* %1, align 4
  %89 = load i8*, i8** %4, align 8
  call void @llvm.stackrestore(i8* %89)
  %90 = load i32, i32* %1, align 4
  ret i32 %90
}

declare dso_local i32 @__isoc99_scanf(i8*, ...) #1

; Function Attrs: nounwind
declare i8* @llvm.stacksave() #2

declare dso_local i32 @printf(i8*, ...) #1

; Function Attrs: nounwind
declare void @llvm.stackrestore(i8*) #2


!llvm.module.flags = !{!0}
!llvm.ident = !{!1}

!0 = !{i32 1, !"wchar_size", i32 4}
!1 = !{!"clang version 10.0.0-4ubuntu1 "}
